; Function Attrs: nounwind sspstrong uwtable
define internal i64 @nucomp_abs2(i64 noundef %0) #0 {
  %2 = inttoptr i64 %0 to ptr
  %3 = getelementptr inbounds nuw i8, ptr %2, i64 16
  %4 = load i64, ptr %3, align 8, !tbaa !15
  %5 = tail call fastcc i64 @f_mul(i64 noundef %4, i64 noundef %4)
  %6 = getelementptr inbounds nuw i8, ptr %2, i64 24
  %7 = load i64, ptr %6, align 8, !tbaa !18
  %8 = tail call fastcc i64 @f_mul(i64 noundef %7, i64 noundef %7)
  %9 = tail call fastcc i64 @f_add(i64 noundef %5, i64 noundef %8)
  ret i64 %9
}